target datalayout = "e-m:e-p270:32:32-p271:32:32-p272:64:64-i64:64-i128:128-f80:128-n8:16:32:64-S128"
target triple = "x86_64-pc-linux-gnu"

%struct.ARKodeMemRec = type { ptr, double, ptr, i32, i32, double, double, ptr, i32, double, ptr, i32, i32, ptr, ptr, i32, ptr, ptr, i32, ptr, ptr, ptr, ptr, ptr, ptr, ptr, ptr, ptr, ptr, ptr, ptr, ptr, ptr, ptr, i32, ptr, ptr, i32, ptr, i32, ptr, ptr, ptr, ptr, ptr, ptr, ptr, ptr, ptr, ptr, ptr, ptr, ptr, ptr, ptr, ptr, ptr, ptr, ptr, ptr, ptr, ptr, ptr, ptr, ptr, ptr, i32, ptr, ptr, ptr, ptr, ptr, ptr, ptr, i32, ptr, ptr, ptr, i32, ptr, ptr, ptr, ptr, ptr, ptr, ptr, i32, i32, i32, i32, double, double, double, double, double, double, double, double, double, double, i32, ptr, i64, i32, i32, i32, i32, i64, i64, i32, i64, i64, i64, i64, i64, i64, i64, double, double, double, double, double, i32, double, double, i32, i32, i32, i32, i32, i32, i32, i32, ptr, i32, ptr, ptr, ptr, ptr, i32, i32, i32 }

; Function Attrs: nounwind uwtable
define void @arkFreeVec(ptr noundef %0, ptr noundef %1) #0 {
  %3 = alloca ptr, align 8
  %4 = alloca ptr, align 8
  store ptr %0, ptr %3, align 8, !tbaa !11
  store ptr %1, ptr %4, align 8, !tbaa !89
  %5 = load ptr, ptr %4, align 8, !tbaa !89
  %6 = load ptr, ptr %5, align 8, !tbaa !7
  %7 = icmp ne ptr %6, null
  br i1 %7, label %8, label %26

8:                                                ; preds = %2
  %9 = load ptr, ptr %4, align 8, !tbaa !89
  %10 = load ptr, ptr %9, align 8, !tbaa !7
  call void @N_VDestroy(ptr noundef %10)
  %11 = load ptr, ptr %4, align 8, !tbaa !89
  store ptr null, ptr %11, align 8, !tbaa !7
  %12 = load ptr, ptr %3, align 8, !tbaa !11
  %13 = getelementptr inbounds nuw %struct.ARKodeMemRec, ptr %12, i32 0, i32 113
  %14 = load i64, ptr %13, align 8, !tbaa !36
  %15 = load ptr, ptr %3, align 8, !tbaa !11
  %16 = getelementptr inbounds nuw %struct.ARKodeMemRec, ptr %15, i32 0, i32 115
  %17 = load i64, ptr %16, align 8, !tbaa !91
  %18 = sub nsw i64 %17, %14
  store i64 %18, ptr %16, align 8, !tbaa !91
  %19 = load ptr, ptr %3, align 8, !tbaa !11
  %20 = getelementptr inbounds nuw %struct.ARKodeMemRec, ptr %19, i32 0, i32 114
  %21 = load i64, ptr %20, align 8, !tbaa !37
  %22 = load ptr, ptr %3, align 8, !tbaa !11
  %23 = getelementptr inbounds nuw %struct.ARKodeMemRec, ptr %22, i32 0, i32 116
  %24 = load i64, ptr %23, align 8, !tbaa !92
  %25 = sub nsw i64 %24, %21
  store i64 %25, ptr %23, align 8, !tbaa !92
  br label %26

26:                                               ; preds = %8, %2
  ret void
}

; Function Attrs: nounwind uwtable
define void @arkFreeVectors(ptr noundef %0) #0 {
  %2 = alloca ptr, align 8
  store ptr %0, ptr %2, align 8, !tbaa !11
  %3 = load ptr, ptr %2, align 8, !tbaa !11
  %4 = load ptr, ptr %2, align 8, !tbaa !11
  %5 = getelementptr inbounds nuw %struct.ARKodeMemRec, ptr %4, i32 0, i32 72
  call void @arkFreeVec(ptr noundef %3, ptr noundef %5)
  %6 = load ptr, ptr %2, align 8, !tbaa !11
  %7 = getelementptr inbounds nuw %struct.ARKodeMemRec, ptr %6, i32 0, i32 74
  %8 = load i32, ptr %7, align 8, !tbaa !55
  %9 = icmp ne i32 %8, 0
  br i1 %9, label %14, label %10

10:                                               ; preds = %1
  %11 = load ptr, ptr %2, align 8, !tbaa !11
  %12 = load ptr, ptr %2, align 8, !tbaa !11
  %13 = getelementptr inbounds nuw %struct.ARKodeMemRec, ptr %12, i32 0, i32 73
  call void @arkFreeVec(ptr noundef %11, ptr noundef %13)
  br label %14

14:                                               ; preds = %10, %1
  %15 = load ptr, ptr %2, align 8, !tbaa !11
  %16 = load ptr, ptr %2, align 8, !tbaa !11
  %17 = getelementptr inbounds nuw %struct.ARKodeMemRec, ptr %16, i32 0, i32 79
  call void @arkFreeVec(ptr noundef %15, ptr noundef %17)
  %18 = load ptr, ptr %2, align 8, !tbaa !11
  %19 = load ptr, ptr %2, align 8, !tbaa !11
  %20 = getelementptr inbounds nuw %struct.ARKodeMemRec, ptr %19, i32 0, i32 80
  call void @arkFreeVec(ptr noundef %18, ptr noundef %20)
  %21 = load ptr, ptr %2, align 8, !tbaa !11
  %22 = load ptr, ptr %2, align 8, !tbaa !11
  %23 = getelementptr inbounds nuw %struct.ARKodeMemRec, ptr %22, i32 0, i32 81
  call void @arkFreeVec(ptr noundef %21, ptr noundef %23)
  %24 = load ptr, ptr %2, align 8, !tbaa !11
  %25 = load ptr, ptr %2, align 8, !tbaa !11
  %26 = getelementptr inbounds nuw %struct.ARKodeMemRec, ptr %25, i32 0, i32 82
  call void @arkFreeVec(ptr noundef %24, ptr noundef %26)
  %27 = load ptr, ptr %2, align 8, !tbaa !11
  %28 = load ptr, ptr %2, align 8, !tbaa !11
  %29 = getelementptr inbounds nuw %struct.ARKodeMemRec, ptr %28, i32 0, i32 83
  call void @arkFreeVec(ptr noundef %27, ptr noundef %29)
  %30 = load ptr, ptr %2, align 8, !tbaa !11
  %31 = load ptr, ptr %2, align 8, !tbaa !11
  %32 = getelementptr inbounds nuw %struct.ARKodeMemRec, ptr %31, i32 0, i32 76
  call void @arkFreeVec(ptr noundef %30, ptr noundef %32)
  %33 = load ptr, ptr %2, align 8, !tbaa !11
  %34 = load ptr, ptr %2, align 8, !tbaa !11
  %35 = getelementptr inbounds nuw %struct.ARKodeMemRec, ptr %34, i32 0, i32 77
  call void @arkFreeVec(ptr noundef %33, ptr noundef %35)
  %36 = load ptr, ptr %2, align 8, !tbaa !11
  %37 = load ptr, ptr %2, align 8, !tbaa !11
  %38 = getelementptr inbounds nuw %struct.ARKodeMemRec, ptr %37, i32 0, i32 7
  call void @arkFreeVec(ptr noundef %36, ptr noundef %38)
  %39 = load ptr, ptr %2, align 8, !tbaa !11
  %40 = load ptr, ptr %2, align 8, !tbaa !11
  %41 = getelementptr inbounds nuw %struct.ARKodeMemRec, ptr %40, i32 0, i32 84
  call void @arkFreeVec(ptr noundef %39, ptr noundef %41)
  ret void
}