; Function Attrs: nounwind uwtable
define void @arkFreeVectors(ptr noundef %0) local_unnamed_addr #0 {
  %2 = getelementptr inbounds nuw i8, ptr %0, i64 560
  %3 = load ptr, ptr %2, align 8, !tbaa !52
  %.not.i = icmp eq ptr %3, null
  br i1 %.not.i, label %arkFreeVec.exit, label %4

4:                                                ; preds = %1
  tail call void @N_VDestroy(ptr noundef nonnull %3) #16
  store ptr null, ptr %2, align 8, !tbaa !52
  %5 = getelementptr inbounds nuw i8, ptr %0, i64 856
  %6 = load i64, ptr %5, align 8, !tbaa !31
  %7 = getelementptr inbounds nuw i8, ptr %0, i64 872
  %8 = load i64, ptr %7, align 8, !tbaa !53
  %9 = sub nsw i64 %8, %6
  store i64 %9, ptr %7, align 8, !tbaa !53
  %10 = getelementptr inbounds nuw i8, ptr %0, i64 864
  %11 = load i64, ptr %10, align 8, !tbaa !32
  %12 = getelementptr inbounds nuw i8, ptr %0, i64 880
  %13 = load i64, ptr %12, align 8, !tbaa !54
  %14 = sub nsw i64 %13, %11
  store i64 %14, ptr %12, align 8, !tbaa !54
  br label %arkFreeVec.exit

arkFreeVec.exit:                                  ; preds = %1, %4
  %15 = getelementptr inbounds nuw i8, ptr %0, i64 576
  %16 = load i32, ptr %15, align 8, !tbaa !55
  %.not = icmp eq i32 %16, 0
  br i1 %.not, label %17, label %arkFreeVec.exit24

17:                                               ; preds = %arkFreeVec.exit
  %18 = getelementptr inbounds nuw i8, ptr %0, i64 568
  %19 = load ptr, ptr %18, align 8, !tbaa !52
  %.not.i23 = icmp eq ptr %19, null
  br i1 %.not.i23, label %arkFreeVec.exit24, label %20

20:                                               ; preds = %17
  tail call void @N_VDestroy(ptr noundef nonnull %19) #16
  store ptr null, ptr %18, align 8, !tbaa !52
  %21 = getelementptr inbounds nuw i8, ptr %0, i64 856
  %22 = load i64, ptr %21, align 8, !tbaa !31
  %23 = getelementptr inbounds nuw i8, ptr %0, i64 872
  %24 = load i64, ptr %23, align 8, !tbaa !53
  %25 = sub nsw i64 %24, %22
  store i64 %25, ptr %23, align 8, !tbaa !53
  %26 = getelementptr inbounds nuw i8, ptr %0, i64 864
  %27 = load i64, ptr %26, align 8, !tbaa !32
  %28 = getelementptr inbounds nuw i8, ptr %0, i64 880
  %29 = load i64, ptr %28, align 8, !tbaa !54
  %30 = sub nsw i64 %29, %27
  store i64 %30, ptr %28, align 8, !tbaa !54
  br label %arkFreeVec.exit24

arkFreeVec.exit24:                                ; preds = %20, %17, %arkFreeVec.exit
  %31 = getelementptr inbounds nuw i8, ptr %0, i64 616
  %32 = load ptr, ptr %31, align 8, !tbaa !52
  %.not.i25 = icmp eq ptr %32, null
  br i1 %.not.i25, label %arkFreeVec.exit26, label %33

33:                                               ; preds = %arkFreeVec.exit24
  tail call void @N_VDestroy(ptr noundef nonnull %32) #16
  store ptr null, ptr %31, align 8, !tbaa !52
  %34 = getelementptr inbounds nuw i8, ptr %0, i64 856
  %35 = load i64, ptr %34, align 8, !tbaa !31
  %36 = getelementptr inbounds nuw i8, ptr %0, i64 872
  %37 = load i64, ptr %36, align 8, !tbaa !53
  %38 = sub nsw i64 %37, %35
  store i64 %38, ptr %36, align 8, !tbaa !53
  %39 = getelementptr inbounds nuw i8, ptr %0, i64 864
  %40 = load i64, ptr %39, align 8, !tbaa !32
  %41 = getelementptr inbounds nuw i8, ptr %0, i64 880
  %42 = load i64, ptr %41, align 8, !tbaa !54
  %43 = sub nsw i64 %42, %40
  store i64 %43, ptr %41, align 8, !tbaa !54
  br label %arkFreeVec.exit26

arkFreeVec.exit26:                                ; preds = %arkFreeVec.exit24, %33
  %44 = getelementptr inbounds nuw i8, ptr %0, i64 624
  %45 = load ptr, ptr %44, align 8, !tbaa !52
  %.not.i27 = icmp eq ptr %45, null
  br i1 %.not.i27, label %arkFreeVec.exit28, label %46

46:                                               ; preds = %arkFreeVec.exit26
  tail call void @N_VDestroy(ptr noundef nonnull %45) #16
  store ptr null, ptr %44, align 8, !tbaa !52
  %47 = getelementptr inbounds nuw i8, ptr %0, i64 856
  %48 = load i64, ptr %47, align 8, !tbaa !31
  %49 = getelementptr inbounds nuw i8, ptr %0, i64 872
  %50 = load i64, ptr %49, align 8, !tbaa !53
  %51 = sub nsw i64 %50, %48
  store i64 %51, ptr %49, align 8, !tbaa !53
  %52 = getelementptr inbounds nuw i8, ptr %0, i64 864
  %53 = load i64, ptr %52, align 8, !tbaa !32
  %54 = getelementptr inbounds nuw i8, ptr %0, i64 880
  %55 = load i64, ptr %54, align 8, !tbaa !54
  %56 = sub nsw i64 %55, %53
  store i64 %56, ptr %54, align 8, !tbaa !54
  br label %arkFreeVec.exit28

arkFreeVec.exit28:                                ; preds = %arkFreeVec.exit26, %46
  %57 = getelementptr inbounds nuw i8, ptr %0, i64 632
  %58 = load ptr, ptr %57, align 8, !tbaa !52
  %.not.i29 = icmp eq ptr %58, null
  br i1 %.not.i29, label %arkFreeVec.exit30, label %59

59:                                               ; preds = %arkFreeVec.exit28
  tail call void @N_VDestroy(ptr noundef nonnull %58) #16
  store ptr null, ptr %57, align 8, !tbaa !52
  %60 = getelementptr inbounds nuw i8, ptr %0, i64 856
  %61 = load i64, ptr %60, align 8, !tbaa !31
  %62 = getelementptr inbounds nuw i8, ptr %0, i64 872
  %63 = load i64, ptr %62, align 8, !tbaa !53
  %64 = sub nsw i64 %63, %61
  store i64 %64, ptr %62, align 8, !tbaa !53
  %65 = getelementptr inbounds nuw i8, ptr %0, i64 864
  %66 = load i64, ptr %65, align 8, !tbaa !32
  %67 = getelementptr inbounds nuw i8, ptr %0, i64 880
  %68 = load i64, ptr %67, align 8, !tbaa !54
  %69 = sub nsw i64 %68, %66
  store i64 %69, ptr %67, align 8, !tbaa !54
  br label %arkFreeVec.exit30

arkFreeVec.exit30:                                ; preds = %arkFreeVec.exit28, %59
  %70 = getelementptr inbounds nuw i8, ptr %0, i64 640
  %71 = load ptr, ptr %70, align 8, !tbaa !52
  %.not.i31 = icmp eq ptr %71, null
  br i1 %.not.i31, label %arkFreeVec.exit32, label %72

72:                                               ; preds = %arkFreeVec.exit30
  tail call void @N_VDestroy(ptr noundef nonnull %71) #16
  store ptr null, ptr %70, align 8, !tbaa !52
  %73 = getelementptr inbounds nuw i8, ptr %0, i64 856
  %74 = load i64, ptr %73, align 8, !tbaa !31
  %75 = getelementptr inbounds nuw i8, ptr %0, i64 872
  %76 = load i64, ptr %75, align 8, !tbaa !53
  %77 = sub nsw i64 %76, %74
  store i64 %77, ptr %75, align 8, !tbaa !53
  %78 = getelementptr inbounds nuw i8, ptr %0, i64 864
  %79 = load i64, ptr %78, align 8, !tbaa !32
  %80 = getelementptr inbounds nuw i8, ptr %0, i64 880
  %81 = load i64, ptr %80, align 8, !tbaa !54
  %82 = sub nsw i64 %81, %79
  store i64 %82, ptr %80, align 8, !tbaa !54
  br label %arkFreeVec.exit32

arkFreeVec.exit32:                                ; preds = %arkFreeVec.exit30, %72
  %83 = getelementptr inbounds nuw i8, ptr %0, i64 648
  %84 = load ptr, ptr %83, align 8, !tbaa !52
  %.not.i33 = icmp eq ptr %84, null
  br i1 %.not.i33, label %arkFreeVec.exit34, label %85

85:                                               ; preds = %arkFreeVec.exit32
  tail call void @N_VDestroy(ptr noundef nonnull %84) #16
  store ptr null, ptr %83, align 8, !tbaa !52
  %86 = getelementptr inbounds nuw i8, ptr %0, i64 856
  %87 = load i64, ptr %86, align 8, !tbaa !31
  %88 = getelementptr inbounds nuw i8, ptr %0, i64 872
  %89 = load i64, ptr %88, align 8, !tbaa !53
  %90 = sub nsw i64 %89, %87
  store i64 %90, ptr %88, align 8, !tbaa !53
  %91 = getelementptr inbounds nuw i8, ptr %0, i64 864
  %92 = load i64, ptr %91, align 8, !tbaa !32
  %93 = getelementptr inbounds nuw i8, ptr %0, i64 880
  %94 = load i64, ptr %93, align 8, !tbaa !54
  %95 = sub nsw i64 %94, %92
  store i64 %95, ptr %93, align 8, !tbaa !54
  br label %arkFreeVec.exit34

arkFreeVec.exit34:                                ; preds = %arkFreeVec.exit32, %85
  %96 = getelementptr inbounds nuw i8, ptr %0, i64 592
  %97 = load ptr, ptr %96, align 8, !tbaa !52
  %.not.i35 = icmp eq ptr %97, null
  br i1 %.not.i35, label %arkFreeVec.exit36, label %98

98:                                               ; preds = %arkFreeVec.exit34
  tail call void @N_VDestroy(ptr noundef nonnull %97) #16
  store ptr null, ptr %96, align 8, !tbaa !52
  %99 = getelementptr inbounds nuw i8, ptr %0, i64 856
  %100 = load i64, ptr %99, align 8, !tbaa !31
  %101 = getelementptr inbounds nuw i8, ptr %0, i64 872
  %102 = load i64, ptr %101, align 8, !tbaa !53
  %103 = sub nsw i64 %102, %100
  store i64 %103, ptr %101, align 8, !tbaa !53
  %104 = getelementptr inbounds nuw i8, ptr %0, i64 864
  %105 = load i64, ptr %104, align 8, !tbaa !32
  %106 = getelementptr inbounds nuw i8, ptr %0, i64 880
  %107 = load i64, ptr %106, align 8, !tbaa !54
  %108 = sub nsw i64 %107, %105
  store i64 %108, ptr %106, align 8, !tbaa !54
  br label %arkFreeVec.exit36

arkFreeVec.exit36:                                ; preds = %arkFreeVec.exit34, %98
  %109 = getelementptr inbounds nuw i8, ptr %0, i64 600
  %110 = load ptr, ptr %109, align 8, !tbaa !52
  %.not.i37 = icmp eq ptr %110, null
  br i1 %.not.i37, label %arkFreeVec.exit38, label %111

111:                                              ; preds = %arkFreeVec.exit36
  tail call void @N_VDestroy(ptr noundef nonnull %110) #16
  store ptr null, ptr %109, align 8, !tbaa !52
  %112 = getelementptr inbounds nuw i8, ptr %0, i64 856
  %113 = load i64, ptr %112, align 8, !tbaa !31
  %114 = getelementptr inbounds nuw i8, ptr %0, i64 872
  %115 = load i64, ptr %114, align 8, !tbaa !53
  %116 = sub nsw i64 %115, %113
  store i64 %116, ptr %114, align 8, !tbaa !53
  %117 = getelementptr inbounds nuw i8, ptr %0, i64 864
  %118 = load i64, ptr %117, align 8, !tbaa !32
  %119 = getelementptr inbounds nuw i8, ptr %0, i64 880
  %120 = load i64, ptr %119, align 8, !tbaa !54
  %121 = sub nsw i64 %120, %118
  store i64 %121, ptr %119, align 8, !tbaa !54
  br label %arkFreeVec.exit38

arkFreeVec.exit38:                                ; preds = %arkFreeVec.exit36, %111
  %122 = getelementptr inbounds nuw i8, ptr %0, i64 48
  %123 = load ptr, ptr %122, align 8, !tbaa !52
  %.not.i39 = icmp eq ptr %123, null
  br i1 %.not.i39, label %arkFreeVec.exit40, label %124

124:                                              ; preds = %arkFreeVec.exit38
  tail call void @N_VDestroy(ptr noundef nonnull %123) #16
  store ptr null, ptr %122, align 8, !tbaa !52
  %125 = getelementptr inbounds nuw i8, ptr %0, i64 856
  %126 = load i64, ptr %125, align 8, !tbaa !31
  %127 = getelementptr inbounds nuw i8, ptr %0, i64 872
  %128 = load i64, ptr %127, align 8, !tbaa !53
  %129 = sub nsw i64 %128, %126
  store i64 %129, ptr %127, align 8, !tbaa !53
  %130 = getelementptr inbounds nuw i8, ptr %0, i64 864
  %131 = load i64, ptr %130, align 8, !tbaa !32
  %132 = getelementptr inbounds nuw i8, ptr %0, i64 880
  %133 = load i64, ptr %132, align 8, !tbaa !54
  %134 = sub nsw i64 %133, %131
  store i64 %134, ptr %132, align 8, !tbaa !54
  br label %arkFreeVec.exit40

arkFreeVec.exit40:                                ; preds = %arkFreeVec.exit38, %124
  %135 = getelementptr inbounds nuw i8, ptr %0, i64 656
  %136 = load ptr, ptr %135, align 8, !tbaa !52
  %.not.i41 = icmp eq ptr %136, null
  br i1 %.not.i41, label %arkFreeVec.exit42, label %137

137:                                              ; preds = %arkFreeVec.exit40
  tail call void @N_VDestroy(ptr noundef nonnull %136) #16
  store ptr null, ptr %135, align 8, !tbaa !52
  %138 = getelementptr inbounds nuw i8, ptr %0, i64 856
  %139 = load i64, ptr %138, align 8, !tbaa !31
  %140 = getelementptr inbounds nuw i8, ptr %0, i64 872
  %141 = load i64, ptr %140, align 8, !tbaa !53
  %142 = sub nsw i64 %141, %139
  store i64 %142, ptr %140, align 8, !tbaa !53
  %143 = getelementptr inbounds nuw i8, ptr %0, i64 864
  %144 = load i64, ptr %143, align 8, !tbaa !32
  %145 = getelementptr inbounds nuw i8, ptr %0, i64 880
  %146 = load i64, ptr %145, align 8, !tbaa !54
  %147 = sub nsw i64 %146, %144
  store i64 %147, ptr %145, align 8, !tbaa !54
  br label %arkFreeVec.exit42

arkFreeVec.exit42:                                ; preds = %arkFreeVec.exit40, %137
  ret void
}